target datalayout = "e-m:e-p270:32:32-p271:32:32-p272:64:64-i64:64-i128:128-f80:128-n8:16:32:64-S128"
target triple = "x86_64-pc-linux-gnu"

@_ZN6icu_7713ListFormatterC1EPKNS_18ListFormatInternalE = unnamed_addr alias void (ptr, ptr), ptr @_ZN6icu_7713ListFormatterC2EPKNS_18ListFormatInternalE

; Function Attrs: inlinehint mustprogress nounwind uwtable
define internal noundef signext i8 @_ZL9U_FAILURE10UErrorCode(i32 noundef %0) #2 {
  %2 = alloca i32, align 4
  store i32 %0, ptr %2, align 4, !tbaa !15
  %3 = load i32, ptr %2, align 4, !tbaa !15
  %4 = icmp sgt i32 %3, 0
  %5 = zext i1 %4 to i8
  ret i8 %5
}

; Function Attrs: mustprogress uwtable
define noundef ptr @_ZN6icu_7713ListFormatter14createInstanceERKNS_6LocaleEPKcR10UErrorCode(ptr noundef nonnull align 8 dereferenceable(217) %0, ptr noundef %1, ptr noundef nonnull align 4 dereferenceable(4) %2) #1 align 2 personality ptr @__gxx_personality_v0 {
  %4 = alloca ptr, align 8
  %5 = alloca ptr, align 8
  %6 = alloca ptr, align 8
  %7 = alloca ptr, align 8
  %8 = alloca ptr, align 8
  %9 = alloca i32, align 4
  %10 = alloca ptr, align 8
  %11 = alloca ptr, align 8
  %12 = alloca i1, align 1
  %13 = alloca ptr, align 8
  %14 = alloca i32, align 4
  store ptr %0, ptr %5, align 8, !tbaa !57
  store ptr %1, ptr %6, align 8, !tbaa !17
  store ptr %2, ptr %7, align 8, !tbaa !22
  call void @llvm.lifetime.start.p0(i64 8, ptr %8) #12
  %15 = load ptr, ptr %5, align 8, !tbaa !57
  %16 = load ptr, ptr %6, align 8, !tbaa !17
  %17 = load ptr, ptr %7, align 8, !tbaa !22
  %18 = call noundef ptr @_ZN6icu_7713ListFormatter21getListFormatInternalERKNS_6LocaleEPKcR10UErrorCode(ptr noundef nonnull align 8 dereferenceable(217) %15, ptr noundef %16, ptr noundef nonnull align 4 dereferenceable(4) %17)
  store ptr %18, ptr %8, align 8, !tbaa !48
  %19 = load ptr, ptr %7, align 8, !tbaa !22
  %20 = load i32, ptr %19, align 4, !tbaa !15
  %21 = call noundef signext i8 @_ZL9U_FAILURE10UErrorCode(i32 noundef %20)
  %22 = icmp ne i8 %21, 0
  br i1 %22, label %23, label %24

23:                                               ; preds = %3
  store ptr null, ptr %4, align 8
  store i32 1, ptr %9, align 4
  br label %47

24:                                               ; preds = %3
  call void @llvm.lifetime.start.p0(i64 8, ptr %10) #12
  %25 = call noundef ptr @_ZN6icu_777UMemorynwEm(i64 noundef 24) #12
  %26 = icmp eq ptr %25, null
  store i1 false, ptr %12, align 1
  br i1 %26, label %30, label %27

27:                                               ; preds = %24
  store ptr %25, ptr %11, align 8
  store i1 true, ptr %12, align 1
  %28 = load ptr, ptr %8, align 8, !tbaa !48
  invoke void @_ZN6icu_7713ListFormatterC1EPKNS_18ListFormatInternalE(ptr noundef nonnull align 8 dereferenceable(24) %25, ptr noundef %28)
          to label %29 unwind label %36

29:                                               ; preds = %27
  br label %30

30:                                               ; preds = %29, %24
  %31 = phi ptr [ %25, %29 ], [ null, %24 ]
  store ptr %31, ptr %10, align 8, !tbaa !39
  %32 = load ptr, ptr %10, align 8, !tbaa !39
  %33 = icmp eq ptr %32, null
  br i1 %33, label %34, label %44

34:                                               ; preds = %30
  %35 = load ptr, ptr %7, align 8, !tbaa !22
  store i32 7, ptr %35, align 4, !tbaa !15
  store ptr null, ptr %4, align 8
  store i32 1, ptr %9, align 4
  br label %46

36:                                               ; preds = %27
  %37 = landingpad { ptr, i32 }
          cleanup
  %38 = extractvalue { ptr, i32 } %37, 0
  store ptr %38, ptr %13, align 8
  %39 = extractvalue { ptr, i32 } %37, 1
  store i32 %39, ptr %14, align 4
  %40 = load i1, ptr %12, align 1
  br i1 %40, label %41, label %43

41:                                               ; preds = %36
  %42 = load ptr, ptr %11, align 8
  call void @_ZN6icu_777UMemorydlEPv(ptr noundef %42) #12
  br label %43

43:                                               ; preds = %41, %36
  call void @llvm.lifetime.end.p0(i64 8, ptr %10) #12
  call void @llvm.lifetime.end.p0(i64 8, ptr %8) #12
  br label %49

44:                                               ; preds = %30
  %45 = load ptr, ptr %10, align 8, !tbaa !39
  store ptr %45, ptr %4, align 8
  store i32 1, ptr %9, align 4
  br label %46

46:                                               ; preds = %44, %34
  call void @llvm.lifetime.end.p0(i64 8, ptr %10) #12
  br label %47

47:                                               ; preds = %46, %23
  call void @llvm.lifetime.end.p0(i64 8, ptr %8) #12
  %48 = load ptr, ptr %4, align 8
  ret ptr %48

49:                                               ; preds = %43
  %50 = load ptr, ptr %13, align 8
  %51 = load i32, ptr %14, align 4
  %52 = insertvalue { ptr, i32 } poison, ptr %50, 0
  %53 = insertvalue { ptr, i32 } %52, i32 %51, 1
  resume { ptr, i32 } %53
}