; Function Attrs: mustprogress uwtable
define noundef ptr @_ZN6icu_7713ListFormatter14createInstanceERKNS_6LocaleEPKcR10UErrorCode(ptr noundef nonnull align 8 dereferenceable(217) %0, ptr noundef %1, ptr noundef nonnull align 4 dereferenceable(4) %2) local_unnamed_addr #1 align 2 personality ptr @__gxx_personality_v0 {
  %4 = tail call noundef ptr @_ZN6icu_7713ListFormatter21getListFormatInternalERKNS_6LocaleEPKcR10UErrorCode(ptr noundef nonnull align 8 dereferenceable(217) %0, ptr noundef %1, ptr noundef nonnull align 4 dereferenceable(4) %2)
  %5 = load i32, ptr %2, align 4, !tbaa !13
  %6 = icmp slt i32 %5, 1
  br i1 %6, label %7, label %14

7:                                                ; preds = %3
  %8 = tail call noundef ptr @_ZN6icu_777UMemorynwEm(i64 noundef 24) #19
  %9 = icmp eq ptr %8, null
  br i1 %9, label %11, label %10

10:                                               ; preds = %7
  invoke void @_ZN6icu_7713ListFormatterC1EPKNS_18ListFormatInternalE(ptr noundef nonnull align 8 dereferenceable(24) %8, ptr noundef %4)
          to label %14 unwind label %12

11:                                               ; preds = %7
  store i32 7, ptr %2, align 4, !tbaa !13
  br label %14

12:                                               ; preds = %10
  %13 = landingpad { ptr, i32 }
          cleanup
  tail call void @_ZN6icu_777UMemorydlEPv(ptr noundef nonnull %8) #19
  resume { ptr, i32 } %13

14:                                               ; preds = %10, %11, %3
  %.0 = phi ptr [ null, %3 ], [ null, %11 ], [ %8, %10 ]
  ret ptr %.0
}